; Function Attrs: inlinehint nofree norecurse nosync nounwind memory(argmem: readwrite) uwtable
define internal void @rgb32tobgr15_c(ptr noundef readonly captures(address) %0, ptr noundef writeonly captures(none) %1, i32 noundef %2) #3 {
  %4 = sext i32 %2 to i64
  %5 = getelementptr inbounds i8, ptr %0, i64 %4
  %6 = icmp sgt i32 %2, 0
  br i1 %6, label %.lr.ph, label %._crit_edge

.lr.ph:                                           ; preds = %3, %.lr.ph
  %.013 = phi ptr [ %18, %.lr.ph ], [ %1, %3 ]
  %.01112 = phi ptr [ %8, %.lr.ph ], [ %0, %3 ]
  %7 = load i32, ptr %.01112, align 4, !tbaa !4
  %8 = getelementptr inbounds nuw i8, ptr %.01112, i64 4
  %9 = shl i32 %7, 7
  %10 = and i32 %9, 31744
  %11 = lshr i32 %7, 6
  %12 = and i32 %11, 992
  %13 = or disjoint i32 %10, %12
  %14 = lshr i32 %7, 19
  %15 = and i32 %14, 31
  %16 = or disjoint i32 %13, %15
  %17 = trunc nuw nsw i32 %16 to i16
  %18 = getelementptr inbounds nuw i8, ptr %.013, i64 2
  store i16 %17, ptr %.013, align 2, !tbaa !16
  %19 = icmp ult ptr %8, %5
  br i1 %19, label %.lr.ph, label %._crit_edge, !llvm.loop !71

._crit_edge:                                      ; preds = %.lr.ph, %3
  ret void
}